; ModuleID = '38/827.c'
source_filename = "38/827.c"
target datalayout = "e-m:e-p270:32:32-p271:32:32-p272:64:64-i64:64-f80:128-n8:16:32:64-S128"
target triple = "x86_64-pc-linux-gnu"

@.str = private unnamed_addr constant [3 x i8] c"%d\00", align 1
@.str.1 = private unnamed_addr constant [4 x i8] c"%lf\00", align 1
@.str.2 = private unnamed_addr constant [7 x i8] c"%.5lf\0A\00", align 1

; Function Attrs: noinline nounwind uwtable
define dso_local i32 @main() #0 {
  %1 = alloca i32, align 4
  %2 = alloca i32, align 4
  %3 = alloca [100 x i32], align 16
  %4 = alloca i32, align 4
  %5 = alloca i32, align 4
  %6 = alloca [100 x [100 x double]], align 16
  %7 = alloca double, align 8
  %8 = alloca double, align 8
  %9 = alloca double, align 8
  %10 = alloca double, align 8
  store i32 0, i32* %1, align 4
  store double 0.000000e+00, double* %8, align 8
  store double 0.000000e+00, double* %9, align 8
  store double 0.000000e+00, double* %10, align 8
  %11 = call i32 (i8*, ...) @__isoc99_scanf(i8* getelementptr inbounds ([3 x i8], [3 x i8]* @.str, i64 0, i64 0), i32* %2)
  store i32 0, i32* %5, align 4
  br label %12

12:                                               ; preds = %40, %0
  %13 = load i32, i32* %5, align 4
  %14 = load i32, i32* %2, align 4
  %15 = icmp slt i32 %13, %14
  br i1 %15, label %16, label %43

16:                                               ; preds = %12
  %17 = load i32, i32* %5, align 4
  %18 = sext i32 %17 to i64
  %19 = getelementptr inbounds [100 x i32], [100 x i32]* %3, i64 0, i64 %18
  %20 = call i32 (i8*, ...) @__isoc99_scanf(i8* getelementptr inbounds ([3 x i8], [3 x i8]* @.str, i64 0, i64 0), i32* %19)
  store i32 0, i32* %4, align 4
  br label %21

21:                                               ; preds = %36, %16
  %22 = load i32, i32* %4, align 4
  %23 = load i32, i32* %5, align 4
  %24 = sext i32 %23 to i64
  %25 = getelementptr inbounds [100 x i32], [100 x i32]* %3, i64 0, i64 %24
  %26 = load i32, i32* %25, align 4
  %27 = icmp slt i32 %22, %26
  br i1 %27, label %28, label %39

28:                                               ; preds = %21
  %29 = load i32, i32* %5, align 4
  %30 = sext i32 %29 to i64
  %31 = getelementptr inbounds [100 x [100 x double]], [100 x [100 x double]]* %6, i64 0, i64 %30
  %32 = load i32, i32* %4, align 4
  %33 = sext i32 %32 to i64
  %34 = getelementptr inbounds [100 x double], [100 x double]* %31, i64 0, i64 %33
  %35 = call i32 (i8*, ...) @__isoc99_scanf(i8* getelementptr inbounds ([4 x i8], [4 x i8]* @.str.1, i64 0, i64 0), double* %34)
  br label %36

36:                                               ; preds = %28
  %37 = load i32, i32* %4, align 4
  %38 = add nsw i32 %37, 1
  store i32 %38, i32* %4, align 4
  br label %21

39:                                               ; preds = %21
  br label %40

40:                                               ; preds = %39
  %41 = load i32, i32* %5, align 4
  %42 = add nsw i32 %41, 1
  store i32 %42, i32* %5, align 4
  br label %12

43:                                               ; preds = %12
  store i32 0, i32* %5, align 4
  br label %44

44:                                               ; preds = %122, %43
  %45 = load i32, i32* %5, align 4
  %46 = load i32, i32* %2, align 4
  %47 = icmp slt i32 %45, %46
  br i1 %47, label %48, label %125

48:                                               ; preds = %44
  store double 0.000000e+00, double* %8, align 8
  store double 0.000000e+00, double* %9, align 8
  store double 0.000000e+00, double* %10, align 8
  store i32 0, i32* %4, align 4
  br label %49

49:                                               ; preds = %66, %48
  %50 = load i32, i32* %4, align 4
  %51 = load i32, i32* %5, align 4
  %52 = sext i32 %51 to i64
  %53 = getelementptr inbounds [100 x i32], [100 x i32]* %3, i64 0, i64 %52
  %54 = load i32, i32* %53, align 4
  %55 = icmp slt i32 %50, %54
  br i1 %55, label %56, label %69

56:                                               ; preds = %49
  %57 = load i32, i32* %5, align 4
  %58 = sext i32 %57 to i64
  %59 = getelementptr inbounds [100 x [100 x double]], [100 x [100 x double]]* %6, i64 0, i64 %58
  %60 = load i32, i32* %4, align 4
  %61 = sext i32 %60 to i64
  %62 = getelementptr inbounds [100 x double], [100 x double]* %59, i64 0, i64 %61
  %63 = load double, double* %62, align 8
  %64 = load double, double* %8, align 8
  %65 = fadd double %64, %63
  store double %65, double* %8, align 8
  br label %66

66:                                               ; preds = %56
  %67 = load i32, i32* %4, align 4
  %68 = add nsw i32 %67, 1
  store i32 %68, i32* %4, align 4
  br label %49

69:                                               ; preds = %49
  %70 = load double, double* %8, align 8
  %71 = load i32, i32* %5, align 4
  %72 = sext i32 %71 to i64
  %73 = getelementptr inbounds [100 x i32], [100 x i32]* %3, i64 0, i64 %72
  %74 = load i32, i32* %73, align 4
  %75 = sitofp i32 %74 to double
  %76 = fmul double 1.000000e+00, %75
  %77 = fdiv double %70, %76
  store double %77, double* %9, align 8
  store i32 0, i32* %4, align 4
  br label %78

78:                                               ; preds = %107, %69
  %79 = load i32, i32* %4, align 4
  %80 = load i32, i32* %5, align 4
  %81 = sext i32 %80 to i64
  %82 = getelementptr inbounds [100 x i32], [100 x i32]* %3, i64 0, i64 %81
  %83 = load i32, i32* %82, align 4
  %84 = icmp slt i32 %79, %83
  br i1 %84, label %85, label %110

85:                                               ; preds = %78
  %86 = load double, double* %10, align 8
  %87 = load i32, i32* %5, align 4
  %88 = sext i32 %87 to i64
  %89 = getelementptr inbounds [100 x [100 x double]], [100 x [100 x double]]* %6, i64 0, i64 %88
  %90 = load i32, i32* %4, align 4
  %91 = sext i32 %90 to i64
  %92 = getelementptr inbounds [100 x double], [100 x double]* %89, i64 0, i64 %91
  %93 = load double, double* %92, align 8
  %94 = load double, double* %9, align 8
  %95 = fsub double %93, %94
  %96 = load i32, i32* %5, align 4
  %97 = sext i32 %96 to i64
  %98 = getelementptr inbounds [100 x [100 x double]], [100 x [100 x double]]* %6, i64 0, i64 %97
  %99 = load i32, i32* %4, align 4
  %100 = sext i32 %99 to i64
  %101 = getelementptr inbounds [100 x double], [100 x double]* %98, i64 0, i64 %100
  %102 = load double, double* %101, align 8
  %103 = load double, double* %9, align 8
  %104 = fsub double %102, %103
  %105 = fmul double %95, %104
  %106 = fadd double %86, %105
  store double %106, double* %10, align 8
  br label %107

107:                                              ; preds = %85
  %108 = load i32, i32* %4, align 4
  %109 = add nsw i32 %108, 1
  store i32 %109, i32* %4, align 4
  br label %78

110:                                              ; preds = %78
  %111 = load double, double* %10, align 8
  %112 = load i32, i32* %5, align 4
  %113 = sext i32 %112 to i64
  %114 = getelementptr inbounds [100 x i32], [100 x i32]* %3, i64 0, i64 %113
  %115 = load i32, i32* %114, align 4
  %116 = sitofp i32 %115 to double
  %117 = fmul double 1.000000e+00, %116
  %118 = fdiv double %111, %117
  %119 = call double @sqrt(double %118) #3
  store double %119, double* %7, align 8
  %120 = load double, double* %7, align 8
  %121 = call i32 (i8*, ...) @printf(i8* getelementptr inbounds ([7 x i8], [7 x i8]* @.str.2, i64 0, i64 0), double %120)
  br label %122

122:                                              ; preds = %110
  %123 = load i32, i32* %5, align 4
  %124 = add nsw i32 %123, 1
  store i32 %124, i32* %5, align 4
  br label %44

125:                                              ; preds = %44
  ret i32 0
}

declare dso_local i32 @__isoc99_scanf(i8*, ...) #1

; Function Attrs: nounwind
declare dso_local double @sqrt(double) #2

declare dso_local i32 @printf(i8*, ...) #1


!llvm.module.flags = !{!0}
!llvm.ident = !{!1}

!0 = !{i32 1, !"wchar_size", i32 4}
!1 = !{!"clang version 10.0.0-4ubuntu1 "}
